target datalayout = "e-m:e-p270:32:32-p271:32:32-p272:64:64-i64:64-i128:128-f80:128-n8:16:32:64-S128"
target triple = "x86_64-pc-linux-gnu"

%struct._YR_COMPILER = type { i32, i32, i32, i32, i32, [1 x %struct.__jmp_buf_tag], ptr, ptr, ptr, ptr, ptr, ptr, ptr, ptr, ptr, ptr, ptr, ptr, ptr, ptr, i32, i32, [4 x ptr], [4 x ptr], i32, i32, i32, [16 x ptr], i32, [16 x ptr], i32, [256 x i8], [1024 x i8], ptr, i16, [1024 x i8], ptr, %struct.rq, %struct.cs, ptr, i32 }
%struct.__jmp_buf_tag = type { [8 x i64], i32, %struct.__sigset_t }
%struct.__sigset_t = type { [16 x i64] }
%struct.rq = type { ptr, ptr }
%struct.cs = type { ptr, ptr }

; Function Attrs: nounwind uwtable
define void @_yr_compiler_pop_file_name(ptr noundef %0) #0 {
  %2 = alloca ptr, align 8
  store ptr %0, ptr %2, align 8
  %3 = load ptr, ptr %2, align 8
  %4 = getelementptr inbounds %struct._YR_COMPILER, ptr %3, i32 0, i32 28
  %5 = load i32, ptr %4, align 8
  %6 = icmp sgt i32 %5, 0
  br i1 %6, label %7, label %27

7:                                                ; preds = %1
  %8 = load ptr, ptr %2, align 8
  %9 = getelementptr inbounds %struct._YR_COMPILER, ptr %8, i32 0, i32 28
  %10 = load i32, ptr %9, align 8
  %11 = add nsw i32 %10, -1
  store i32 %11, ptr %9, align 8
  %12 = load ptr, ptr %2, align 8
  %13 = getelementptr inbounds %struct._YR_COMPILER, ptr %12, i32 0, i32 27
  %14 = load ptr, ptr %2, align 8
  %15 = getelementptr inbounds %struct._YR_COMPILER, ptr %14, i32 0, i32 28
  %16 = load i32, ptr %15, align 8
  %17 = sext i32 %16 to i64
  %18 = getelementptr inbounds [16 x ptr], ptr %13, i64 0, i64 %17
  %19 = load ptr, ptr %18, align 8
  call void @free(ptr noundef %19) #5
  %20 = load ptr, ptr %2, align 8
  %21 = getelementptr inbounds %struct._YR_COMPILER, ptr %20, i32 0, i32 27
  %22 = load ptr, ptr %2, align 8
  %23 = getelementptr inbounds %struct._YR_COMPILER, ptr %22, i32 0, i32 28
  %24 = load i32, ptr %23, align 8
  %25 = sext i32 %24 to i64
  %26 = getelementptr inbounds [16 x ptr], ptr %21, i64 0, i64 %25
  store ptr null, ptr %26, align 8
  br label %27

27:                                               ; preds = %7, %1
  ret void
}