; Function Attrs: mustprogress nounwind willreturn uwtable
define void @_yr_compiler_pop_file_name(ptr nocapture noundef %0) local_unnamed_addr #4 {
  %2 = getelementptr inbounds i8, ptr %0, i64 552
  %3 = load i32, ptr %2, align 8
  %4 = icmp sgt i32 %3, 0
  br i1 %4, label %5, label %14

5:                                                ; preds = %1
  %6 = add nsw i32 %3, -1
  store i32 %6, ptr %2, align 8
  %7 = getelementptr inbounds i8, ptr %0, i64 424
  %8 = zext nneg i32 %6 to i64
  %9 = getelementptr inbounds [16 x ptr], ptr %7, i64 0, i64 %8
  %10 = load ptr, ptr %9, align 8
  tail call void @free(ptr noundef %10) #10
  %11 = load i32, ptr %2, align 8
  %12 = sext i32 %11 to i64
  %13 = getelementptr inbounds [16 x ptr], ptr %7, i64 0, i64 %12
  store ptr null, ptr %13, align 8
  br label %14

14:                                               ; preds = %5, %1
  ret void
}